; Function Attrs: nounwind uwtable
define internal noundef i32 @test_binary_illegal() #0 {
  %1 = alloca %union.anon.26, align 8
  %2 = getelementptr inbounds nuw i8, ptr %1, i64 1
  %3 = getelementptr inbounds nuw i8, ptr %1, i64 2
  %4 = getelementptr inbounds nuw i8, ptr %1, i64 8
  %5 = getelementptr inbounds nuw i8, ptr %1, i64 12
  %6 = getelementptr inbounds nuw i8, ptr %1, i64 6
  %7 = getelementptr inbounds nuw i8, ptr %1, i64 24
  br label %8

8:                                                ; preds = %0, %safe_recv_packet.exit
  %.05 = phi i8 [ 37, %0 ], [ %34, %safe_recv_packet.exit ]
  call void @llvm.lifetime.start.p0(i64 1024, ptr nonnull %1) #21
  call void @llvm.memset.p0.i64(ptr noundef nonnull align 8 dereferenceable(24) %1, i8 0, i64 24, i1 false)
  store i8 -128, ptr %1, align 8, !tbaa !6
  store i8 %.05, ptr %2, align 1, !tbaa !6
  store i32 0, ptr %4, align 8, !tbaa !6
  store i32 -559038737, ptr %5, align 4, !tbaa !6
  br label %.split.us.i

.split.us.i:                                      ; preds = %21, %8
  %.0.us.i = phi i64 [ %.1.us.i, %21 ], [ 0, %8 ]
  %9 = sub nuw nsw i64 24, %.0.us.i
  %10 = load ptr, ptr @con, align 8, !tbaa !35
  %11 = getelementptr inbounds nuw i8, ptr %10, i64 16
  %12 = load ptr, ptr %11, align 8, !tbaa !39
  %13 = getelementptr inbounds i8, ptr %1, i64 %.0.us.i
  %14 = call i64 %12(ptr noundef %10, ptr noundef nonnull %13, i64 noundef %9) #21
  %15 = icmp eq i64 %14, -1
  br i1 %15, label %18, label %16

16:                                               ; preds = %.split.us.i
  %17 = add nsw i64 %14, %.0.us.i
  br label %21

18:                                               ; preds = %.split.us.i
  %19 = tail call ptr @__errno_location() #25
  %20 = load i32, ptr %19, align 4, !tbaa !9
  %.not.us.i = icmp eq i32 %20, 4
  br i1 %.not.us.i, label %21, label %.split18.us.i

21:                                               ; preds = %18, %16
  %.1.us.i = phi i64 [ %.0.us.i, %18 ], [ %17, %16 ]
  %22 = icmp ult i64 %.1.us.i, 24
  br i1 %22, label %.split.us.i, label %safe_send.exit, !llvm.loop !49

.split18.us.i:                                    ; preds = %18
  %23 = load ptr, ptr @stderr, align 8, !tbaa !44
  %24 = call ptr @strerror(i32 noundef %20) #21
  %25 = call i32 (ptr, ptr, ...) @fprintf(ptr noundef %23, ptr noundef nonnull @.str.238, ptr noundef %24) #26
  call void @abort() #22
  unreachable

safe_send.exit:                                   ; preds = %21
  %26 = call fastcc zeroext i1 @safe_recv(ptr noundef nonnull %1, i64 noundef 24)
  br i1 %26, label %27, label %safe_recv_packet.exit

27:                                               ; preds = %safe_send.exit
  %28 = load i16, ptr %3, align 2, !tbaa !6
  %rev.i.i = call noundef i16 @llvm.bswap.i16(i16 %28)
  store i16 %rev.i.i, ptr %3, align 2, !tbaa !6
  %29 = load i16, ptr %6, align 2, !tbaa !6
  %rev.i14.i = call noundef i16 @llvm.bswap.i16(i16 %29)
  store i16 %rev.i14.i, ptr %6, align 2, !tbaa !6
  %30 = load i32, ptr %4, align 8, !tbaa !6
  %31 = call noundef i32 @llvm.bswap.i32(i32 %30)
  store i32 %31, ptr %4, align 8, !tbaa !6
  %32 = zext i32 %31 to i64
  %33 = call fastcc zeroext i1 @safe_recv(ptr noundef %7, i64 noundef %32)
  br label %safe_recv_packet.exit

safe_recv_packet.exit:                            ; preds = %safe_send.exit, %27
  call fastcc void @validate_response_header(ptr noundef %1, i8 noundef zeroext %.05, i16 noundef zeroext 129)
  %34 = add i8 %.05, 1
  call void @llvm.lifetime.end.p0(i64 1024, ptr nonnull %1) #21
  %.not = icmp eq i8 %34, 0
  br i1 %.not, label %35, label %8, !llvm.loop !51

35:                                               ; preds = %safe_recv_packet.exit
  ret i32 1
}